target datalayout = "e-m:e-p270:32:32-p271:32:32-p272:64:64-i64:64-i128:128-f80:128-n8:16:32:64-S128"
target triple = "x86_64-pc-linux-gnu"

; Function Attrs: null_pointer_is_valid sspstrong uwtable
define internal zeroext i1 @dissect_norm_heur(ptr noundef %0, ptr noundef %1, ptr noundef %2, ptr noundef %3) #0 {
  %5 = alloca i1, align 1
  %6 = alloca ptr, align 8
  %7 = alloca ptr, align 8
  %8 = alloca ptr, align 8
  %9 = alloca ptr, align 8
  %10 = alloca i8, align 1
  %11 = alloca i32, align 4
  store ptr %0, ptr %6, align 8
  store ptr %1, ptr %7, align 8
  store ptr %2, ptr %8, align 8
  store ptr %3, ptr %9, align 8
  call void @llvm.lifetime.start.p0(i64 1, ptr %10) #8
  %12 = load ptr, ptr %6, align 8
  %13 = call i32 @tvb_reported_length(ptr noundef %12)
  %14 = icmp ult i32 %13, 12
  br i1 %14, label %15, label %16

15:                                               ; preds = %4
  store i1 false, ptr %5, align 1
  store i32 1, ptr %11, align 4
  br label %48

16:                                               ; preds = %4
  %17 = load ptr, ptr %6, align 8
  %18 = call zeroext i8 @tvb_get_uint8(ptr noundef %17, i32 noundef 0)
  store i8 %18, ptr %10, align 1
  %19 = load i8, ptr %10, align 1
  %20 = zext i8 %19 to i32
  %21 = and i32 %20, 240
  %22 = ashr i32 %21, 4
  %23 = icmp ne i32 %22, 1
  br i1 %23, label %24, label %25

24:                                               ; preds = %16
  store i1 false, ptr %5, align 1
  store i32 1, ptr %11, align 4
  br label %48

25:                                               ; preds = %16
  %26 = load i8, ptr %10, align 1
  %27 = zext i8 %26 to i32
  %28 = and i32 %27, 15
  %29 = icmp slt i32 %28, 1
  br i1 %29, label %35, label %30

30:                                               ; preds = %25
  %31 = load i8, ptr %10, align 1
  %32 = zext i8 %31 to i32
  %33 = and i32 %32, 15
  %34 = icmp sgt i32 %33, 6
  br i1 %34, label %35, label %36

35:                                               ; preds = %30, %25
  store i1 false, ptr %5, align 1
  store i32 1, ptr %11, align 4
  br label %48

36:                                               ; preds = %30
  %37 = load ptr, ptr %6, align 8
  %38 = call zeroext i8 @tvb_get_uint8(ptr noundef %37, i32 noundef 1)
  %39 = zext i8 %38 to i32
  %40 = icmp sgt i32 %39, 20
  br i1 %40, label %41, label %42

41:                                               ; preds = %36
  store i1 false, ptr %5, align 1
  store i32 1, ptr %11, align 4
  br label %48

42:                                               ; preds = %36
  %43 = load ptr, ptr %6, align 8
  %44 = load ptr, ptr %7, align 8
  %45 = load ptr, ptr %8, align 8
  %46 = load ptr, ptr %9, align 8
  %47 = call i32 @dissect_norm(ptr noundef %43, ptr noundef %44, ptr noundef %45, ptr noundef %46)
  store i1 true, ptr %5, align 1
  store i32 1, ptr %11, align 4
  br label %48

48:                                               ; preds = %42, %41, %35, %24, %15
  call void @llvm.lifetime.end.p0(i64 1, ptr %10) #8
  %49 = load i1, ptr %5, align 1
  ret i1 %49
}